target datalayout = "e-m:e-p270:32:32-p271:32:32-p272:64:64-i64:64-i128:128-f80:128-n8:16:32:64-S128"
target triple = "x86_64-pc-linux-gnu"

%struct.ieee802154_packet = type { i32, i32, i32, i32, i8, i8, i8, i8, i8, i8, i8, i8, i8, i8, i8, i8, i16, i16, i16, i64, i16, i64, i32, i32, i8, i32, i8, i64, %union.anon, i8, i8, ptr }
%union.anon = type { i64 }

; Function Attrs: null_pointer_is_valid sspstrong uwtable
define internal zeroext i1 @dissect_thread_bcn_heur(ptr noundef %0, ptr noundef %1, ptr noundef %2, ptr noundef %3) #0 {
  %5 = alloca i1, align 1
  %6 = alloca ptr, align 8
  %7 = alloca ptr, align 8
  %8 = alloca ptr, align 8
  %9 = alloca ptr, align 8
  %10 = alloca ptr, align 8
  %11 = alloca i32, align 4
  store ptr %0, ptr %6, align 8
  store ptr %1, ptr %7, align 8
  store ptr %2, ptr %8, align 8
  store ptr %3, ptr %9, align 8
  call void @llvm.lifetime.start.p0(i64 8, ptr %10) #9
  %12 = load ptr, ptr %9, align 8
  store ptr %12, ptr %10, align 8
  %13 = load ptr, ptr %10, align 8
  %14 = icmp ne ptr %13, null
  br i1 %14, label %16, label %15

15:                                               ; preds = %4
  store i1 false, ptr %5, align 1
  store i32 1, ptr %11, align 4
  br label %44

16:                                               ; preds = %4
  %17 = load ptr, ptr %10, align 8
  %18 = getelementptr inbounds nuw %struct.ieee802154_packet, ptr %17, i32 0, i32 3
  %19 = load i32, ptr %18, align 4
  %20 = icmp eq i32 %19, 2
  br i1 %20, label %27, label %21

21:                                               ; preds = %16
  %22 = load ptr, ptr %10, align 8
  %23 = getelementptr inbounds nuw %struct.ieee802154_packet, ptr %22, i32 0, i32 3
  %24 = load i32, ptr %23, align 4
  %25 = icmp eq i32 %24, 3
  br i1 %25, label %27, label %26

26:                                               ; preds = %21
  store i1 false, ptr %5, align 1
  store i32 1, ptr %11, align 4
  br label %44

27:                                               ; preds = %21, %16
  %28 = load ptr, ptr %6, align 8
  %29 = call i32 @tvb_captured_length(ptr noundef %28)
  %30 = icmp ugt i32 %29, 0
  br i1 %30, label %31, label %43

31:                                               ; preds = %27
  %32 = load ptr, ptr %6, align 8
  %33 = call zeroext i8 @tvb_get_uint8(ptr noundef %32, i32 noundef 0)
  %34 = zext i8 %33 to i32
  %35 = icmp ne i32 %34, 3
  br i1 %35, label %36, label %37

36:                                               ; preds = %31
  store i1 false, ptr %5, align 1
  store i32 1, ptr %11, align 4
  br label %44

37:                                               ; preds = %31
  %38 = load ptr, ptr %6, align 8
  %39 = load ptr, ptr %7, align 8
  %40 = load ptr, ptr %8, align 8
  %41 = load ptr, ptr %10, align 8
  %42 = call i32 @dissect_thread_bcn(ptr noundef %38, ptr noundef %39, ptr noundef %40, ptr noundef %41)
  store i1 true, ptr %5, align 1
  store i32 1, ptr %11, align 4
  br label %44

43:                                               ; preds = %27
  store i1 false, ptr %5, align 1
  store i32 1, ptr %11, align 4
  br label %44

44:                                               ; preds = %43, %37, %36, %26, %15
  call void @llvm.lifetime.end.p0(i64 8, ptr %10) #9
  %45 = load i1, ptr %5, align 1
  ret i1 %45
}