; Function Attrs: null_pointer_is_valid sspstrong uwtable
define internal noundef zeroext i1 @dissect_thread_bcn_heur(ptr noundef %0, ptr noundef readonly captures(none) %1, ptr noundef %2, ptr noundef captures(address_is_null) %3) #0 {
  %.not = icmp eq ptr %3, null
  br i1 %.not, label %15, label %5

5:                                                ; preds = %4
  %6 = getelementptr inbounds nuw i8, ptr %3, i64 12
  %7 = load i32, ptr %6, align 4
  %8 = and i32 %7, -2
  %switch = icmp eq i32 %8, 2
  br i1 %switch, label %9, label %15

9:                                                ; preds = %5
  %10 = tail call i32 @tvb_captured_length(ptr noundef %0)
  %.not13 = icmp eq i32 %10, 0
  br i1 %.not13, label %15, label %11

11:                                               ; preds = %9
  %12 = tail call zeroext i8 @tvb_get_uint8(ptr noundef %0, i32 noundef 0)
  %.not14 = icmp eq i8 %12, 3
  br i1 %.not14, label %13, label %15

13:                                               ; preds = %11
  %14 = tail call i32 @dissect_thread_bcn(ptr noundef %0, ptr noundef %1, ptr noundef %2, ptr noundef nonnull %3)
  br label %15

15:                                               ; preds = %5, %9, %11, %4, %13
  %.0 = phi i1 [ true, %13 ], [ false, %4 ], [ false, %5 ], [ false, %11 ], [ false, %9 ]
  ret i1 %.0
}